target datalayout = "e-m:e-p270:32:32-p271:32:32-p272:64:64-i64:64-i128:128-f80:128-n8:16:32:64-S128"
target triple = "x86_64-unknown-linux-gnu"

%"struct.OpenImageIO_v2_6_0::TypeDesc" = type { i8, i8, i8, i8, i32 }
%"struct.OpenImageIO_v2_6_0::ParamValue::Copy" = type { %"struct.OpenImageIO_v2_6_0::StrongParam" }
%"struct.OpenImageIO_v2_6_0::StrongParam" = type { i8 }
%"struct.OpenImageIO_v2_6_0::ParamValue::FromUstring" = type { %"struct.OpenImageIO_v2_6_0::StrongParam.0" }
%"struct.OpenImageIO_v2_6_0::StrongParam.0" = type { i8 }
%"class.OpenImageIO_v2_6_0::ustring" = type { ptr }

; Function Attrs: mustprogress nounwind uwtable
define linkonce_odr void @_ZN18OpenImageIO_v2_6_07ustringD2Ev(ptr noundef nonnull align 8 dereferenceable(8) %this) unnamed_addr #4 comdat align 2 {
entry:
  %this.addr = alloca ptr, align 8
  store ptr %this, ptr %this.addr, align 8
  ret void
}

; Function Attrs: mustprogress nounwind uwtable
define linkonce_odr void @_ZN18OpenImageIO_v2_6_08TypeDescC2ERKS0_(ptr noundef nonnull align 4 dereferenceable(8) %this, ptr noundef nonnull align 4 dereferenceable(8) %t) unnamed_addr #4 comdat align 2 {
entry:
  %this.addr = alloca ptr, align 8
  %t.addr = alloca ptr, align 8
  store ptr %this, ptr %this.addr, align 8
  store ptr %t, ptr %t.addr, align 8
  %this1 = load ptr, ptr %this.addr, align 8
  %basetype = getelementptr inbounds %"struct.OpenImageIO_v2_6_0::TypeDesc", ptr %this1, i32 0, i32 0
  %0 = load ptr, ptr %t.addr, align 8
  %basetype2 = getelementptr inbounds %"struct.OpenImageIO_v2_6_0::TypeDesc", ptr %0, i32 0, i32 0
  %1 = load i8, ptr %basetype2, align 4
  store i8 %1, ptr %basetype, align 4
  %aggregate = getelementptr inbounds %"struct.OpenImageIO_v2_6_0::TypeDesc", ptr %this1, i32 0, i32 1
  %2 = load ptr, ptr %t.addr, align 8
  %aggregate3 = getelementptr inbounds %"struct.OpenImageIO_v2_6_0::TypeDesc", ptr %2, i32 0, i32 1
  %3 = load i8, ptr %aggregate3, align 1
  store i8 %3, ptr %aggregate, align 1
  %vecsemantics = getelementptr inbounds %"struct.OpenImageIO_v2_6_0::TypeDesc", ptr %this1, i32 0, i32 2
  %4 = load ptr, ptr %t.addr, align 8
  %vecsemantics4 = getelementptr inbounds %"struct.OpenImageIO_v2_6_0::TypeDesc", ptr %4, i32 0, i32 2
  %5 = load i8, ptr %vecsemantics4, align 2
  store i8 %5, ptr %vecsemantics, align 2
  %reserved = getelementptr inbounds %"struct.OpenImageIO_v2_6_0::TypeDesc", ptr %this1, i32 0, i32 3
  store i8 0, ptr %reserved, align 1
  %arraylen = getelementptr inbounds %"struct.OpenImageIO_v2_6_0::TypeDesc", ptr %this1, i32 0, i32 4
  %6 = load ptr, ptr %t.addr, align 8
  %arraylen5 = getelementptr inbounds %"struct.OpenImageIO_v2_6_0::TypeDesc", ptr %6, i32 0, i32 4
  %7 = load i32, ptr %arraylen5, align 4
  store i32 %7, ptr %arraylen, align 4
  ret void
}

; Function Attrs: mustprogress nounwind uwtable
define linkonce_odr void @_ZN18OpenImageIO_v2_6_07ustringC2ERKS0_(ptr noundef nonnull align 8 dereferenceable(8) %this, ptr noundef nonnull align 8 dereferenceable(8) %str) unnamed_addr #4 comdat align 2 {
entry:
  %this.addr = alloca ptr, align 8
  %str.addr = alloca ptr, align 8
  store ptr %this, ptr %this.addr, align 8
  store ptr %str, ptr %str.addr, align 8
  %this1 = load ptr, ptr %this.addr, align 8
  %m_chars = getelementptr inbounds %"class.OpenImageIO_v2_6_0::ustring", ptr %this1, i32 0, i32 0
  %0 = load ptr, ptr %str.addr, align 8
  %m_chars2 = getelementptr inbounds %"class.OpenImageIO_v2_6_0::ustring", ptr %0, i32 0, i32 0
  %1 = load ptr, ptr %m_chars2, align 8
  store ptr %1, ptr %m_chars, align 8
  ret void
}

; Function Attrs: mustprogress nounwind uwtable
define void @_ZN18OpenImageIO_v2_6_010ParamValue12init_noclearENS_7ustringENS_8TypeDescEiPKvNS0_4CopyENS0_11FromUstringE(ptr noundef nonnull align 8 dereferenceable(39) %this, ptr noundef %_name, ptr noundef %_type, i32 noundef %_nvalues, ptr noundef %_value, i8 %_copy.coerce, i8 %_from_ustring.coerce) #4 align 2 {
entry:
  %_copy = alloca %"struct.OpenImageIO_v2_6_0::ParamValue::Copy", align 1
  %_from_ustring = alloca %"struct.OpenImageIO_v2_6_0::ParamValue::FromUstring", align 1
  %this.addr = alloca ptr, align 8
  %_name.indirect_addr = alloca ptr, align 8
  %_type.indirect_addr = alloca ptr, align 8
  %_nvalues.addr = alloca i32, align 4
  %_value.addr = alloca ptr, align 8
  %agg.tmp = alloca %"class.OpenImageIO_v2_6_0::ustring", align 8
  %agg.tmp5 = alloca %"struct.OpenImageIO_v2_6_0::TypeDesc", align 4
  %agg.tmp6 = alloca %"struct.OpenImageIO_v2_6_0::ParamValue::Copy", align 1
  %agg.tmp7 = alloca %"struct.OpenImageIO_v2_6_0::ParamValue::FromUstring", align 1
  %coerce.dive = getelementptr inbounds %"struct.OpenImageIO_v2_6_0::ParamValue::Copy", ptr %_copy, i32 0, i32 0
  %coerce.dive1 = getelementptr inbounds %"struct.OpenImageIO_v2_6_0::StrongParam", ptr %coerce.dive, i32 0, i32 0
  store i8 %_copy.coerce, ptr %coerce.dive1, align 1
  %coerce.dive2 = getelementptr inbounds %"struct.OpenImageIO_v2_6_0::ParamValue::FromUstring", ptr %_from_ustring, i32 0, i32 0
  %coerce.dive3 = getelementptr inbounds %"struct.OpenImageIO_v2_6_0::StrongParam.0", ptr %coerce.dive2, i32 0, i32 0
  store i8 %_from_ustring.coerce, ptr %coerce.dive3, align 1
  store ptr %this, ptr %this.addr, align 8
  store ptr %_name, ptr %_name.indirect_addr, align 8
  store ptr %_type, ptr %_type.indirect_addr, align 8
  store i32 %_nvalues, ptr %_nvalues.addr, align 4
  store ptr %_value, ptr %_value.addr, align 8
  %this4 = load ptr, ptr %this.addr, align 8
  call void @_ZN18OpenImageIO_v2_6_07ustringC2ERKS0_(ptr noundef nonnull align 8 dereferenceable(8) %agg.tmp, ptr noundef nonnull align 8 dereferenceable(8) %_name) #3
  call void @_ZN18OpenImageIO_v2_6_08TypeDescC2ERKS0_(ptr noundef nonnull align 4 dereferenceable(8) %agg.tmp5, ptr noundef nonnull align 4 dereferenceable(8) %_type) #3
  %0 = load i32, ptr %_nvalues.addr, align 4
  %1 = load ptr, ptr %_value.addr, align 8
  call void @llvm.memcpy.p0.p0.i64(ptr align 1 %agg.tmp6, ptr align 1 %_copy, i64 1, i1 false)
  call void @llvm.memcpy.p0.p0.i64(ptr align 1 %agg.tmp7, ptr align 1 %_from_ustring, i64 1, i1 false)
  %coerce.dive8 = getelementptr inbounds %"struct.OpenImageIO_v2_6_0::ParamValue::Copy", ptr %agg.tmp6, i32 0, i32 0
  %coerce.dive9 = getelementptr inbounds %"struct.OpenImageIO_v2_6_0::StrongParam", ptr %coerce.dive8, i32 0, i32 0
  %2 = load i8, ptr %coerce.dive9, align 1
  %coerce.dive10 = getelementptr inbounds %"struct.OpenImageIO_v2_6_0::ParamValue::FromUstring", ptr %agg.tmp7, i32 0, i32 0
  %coerce.dive11 = getelementptr inbounds %"struct.OpenImageIO_v2_6_0::StrongParam.0", ptr %coerce.dive10, i32 0, i32 0
  %3 = load i8, ptr %coerce.dive11, align 1
  call void @_ZN18OpenImageIO_v2_6_010ParamValue12init_noclearENS_7ustringENS_8TypeDescEiNS0_6InterpEPKvNS0_4CopyENS0_11FromUstringE(ptr noundef nonnull align 8 dereferenceable(39) %this4, ptr noundef %agg.tmp, ptr noundef %agg.tmp5, i32 noundef %0, i32 noundef 0, ptr noundef %1, i8 %2, i8 %3) #3
  call void @_ZN18OpenImageIO_v2_6_07ustringD2Ev(ptr noundef nonnull align 8 dereferenceable(8) %agg.tmp) #3
  ret void
}