; Function Attrs: mustprogress nounwind uwtable
define void @_ZN18OpenImageIO_v2_6_010ParamValue12init_noclearENS_7ustringENS_8TypeDescEiPKvNS0_4CopyENS0_11FromUstringE(ptr noundef nonnull align 8 dereferenceable(39) %this, ptr nocapture noundef readonly %_name, ptr nocapture noundef readonly %_type, i32 noundef %_nvalues, ptr noundef %_value, i8 %_copy.coerce, i8 %_from_ustring.coerce) local_unnamed_addr #3 align 2 {
entry:
  %agg.tmp = alloca %"class.OpenImageIO_v2_6_0::ustring", align 8
  %agg.tmp5 = alloca %"struct.OpenImageIO_v2_6_0::TypeDesc", align 4
  %0 = load ptr, ptr %_name, align 8
  store ptr %0, ptr %agg.tmp, align 8
  %1 = load i8, ptr %_type, align 4
  store i8 %1, ptr %agg.tmp5, align 4
  %aggregate.i = getelementptr inbounds i8, ptr %agg.tmp5, i64 1
  %aggregate3.i = getelementptr inbounds i8, ptr %_type, i64 1
  %2 = load i8, ptr %aggregate3.i, align 1
  store i8 %2, ptr %aggregate.i, align 1
  %vecsemantics.i = getelementptr inbounds i8, ptr %agg.tmp5, i64 2
  %vecsemantics4.i = getelementptr inbounds i8, ptr %_type, i64 2
  %3 = load i8, ptr %vecsemantics4.i, align 2
  store i8 %3, ptr %vecsemantics.i, align 2
  %reserved.i = getelementptr inbounds i8, ptr %agg.tmp5, i64 3
  store i8 0, ptr %reserved.i, align 1
  %arraylen.i = getelementptr inbounds i8, ptr %agg.tmp5, i64 4
  %arraylen5.i = getelementptr inbounds i8, ptr %_type, i64 4
  %4 = load i32, ptr %arraylen5.i, align 4
  store i32 %4, ptr %arraylen.i, align 4
  call void @_ZN18OpenImageIO_v2_6_010ParamValue12init_noclearENS_7ustringENS_8TypeDescEiNS0_6InterpEPKvNS0_4CopyENS0_11FromUstringE(ptr noundef nonnull align 8 dereferenceable(39) %this, ptr noundef nonnull %agg.tmp, ptr noundef nonnull %agg.tmp5, i32 noundef %_nvalues, i32 noundef 0, ptr noundef %_value, i8 %_copy.coerce, i8 %_from_ustring.coerce) #24
  ret void
}